target datalayout = "e-m:e-p270:32:32-p271:32:32-p272:64:64-i64:64-i128:128-f80:128-n8:16:32:64-S128"
target triple = "x86_64-pc-linux-gnu"

%struct.mbedtls_chachapoly_context = type { %struct.mbedtls_chacha20_context, %struct.mbedtls_poly1305_context, i64, i64, i32, i32 }
%struct.mbedtls_chacha20_context = type { [16 x i32], [64 x i8], i64 }
%struct.mbedtls_poly1305_context = type { [4 x i32], [4 x i32], [5 x i32], [16 x i8], i64 }

; Function Attrs: nounwind uwtable
define internal i32 @chachapoly_pad_aad(ptr noundef %0) #0 {
  %2 = alloca i32, align 4
  %3 = alloca ptr, align 8
  %4 = alloca i32, align 4
  %5 = alloca [15 x i8], align 1
  %6 = alloca i32, align 4
  store ptr %0, ptr %3, align 8, !tbaa !3
  call void @llvm.lifetime.start.p0(i64 4, ptr %4) #7
  %7 = load ptr, ptr %3, align 8, !tbaa !3
  %8 = getelementptr inbounds nuw %struct.mbedtls_chachapoly_context, ptr %7, i32 0, i32 2
  %9 = load i64, ptr %8, align 8, !tbaa !8
  %10 = urem i64 %9, 16
  %11 = trunc i64 %10 to i32
  store i32 %11, ptr %4, align 4, !tbaa !19
  call void @llvm.lifetime.start.p0(i64 15, ptr %5) #7
  %12 = load i32, ptr %4, align 4, !tbaa !19
  %13 = icmp eq i32 %12, 0
  br i1 %13, label %14, label %15

14:                                               ; preds = %1
  store i32 0, ptr %2, align 4
  store i32 1, ptr %6, align 4
  br label %24

15:                                               ; preds = %1
  %16 = getelementptr inbounds [15 x i8], ptr %5, i64 0, i64 0
  call void @llvm.memset.p0.i64(ptr align 1 %16, i8 0, i64 15, i1 false)
  %17 = load ptr, ptr %3, align 8, !tbaa !3
  %18 = getelementptr inbounds nuw %struct.mbedtls_chachapoly_context, ptr %17, i32 0, i32 1
  %19 = getelementptr inbounds [15 x i8], ptr %5, i64 0, i64 0
  %20 = load i32, ptr %4, align 4, !tbaa !19
  %21 = sub i32 16, %20
  %22 = zext i32 %21 to i64
  %23 = call i32 @mbedtls_poly1305_update(ptr noundef %18, ptr noundef %19, i64 noundef %22)
  store i32 %23, ptr %2, align 4
  store i32 1, ptr %6, align 4
  br label %24

24:                                               ; preds = %15, %14
  call void @llvm.lifetime.end.p0(i64 15, ptr %5) #7
  call void @llvm.lifetime.end.p0(i64 4, ptr %4) #7
  %25 = load i32, ptr %2, align 4
  ret i32 %25
}

; Function Attrs: nounwind uwtable
define hidden i32 @mbedtls_chachapoly_update(ptr noundef %0, i64 noundef %1, ptr noundef %2, ptr noundef %3) #0 {
  %5 = alloca i32, align 4
  %6 = alloca ptr, align 8
  %7 = alloca i64, align 8
  %8 = alloca ptr, align 8
  %9 = alloca ptr, align 8
  %10 = alloca i32, align 4
  %11 = alloca i32, align 4
  store ptr %0, ptr %6, align 8, !tbaa !3
  store i64 %1, ptr %7, align 8, !tbaa !20
  store ptr %2, ptr %8, align 8, !tbaa !17
  store ptr %3, ptr %9, align 8, !tbaa !17
  call void @llvm.lifetime.start.p0(i64 4, ptr %10) #7
  store i32 -110, ptr %10, align 4, !tbaa !19
  %12 = load ptr, ptr %6, align 8, !tbaa !3
  %13 = getelementptr inbounds nuw %struct.mbedtls_chachapoly_context, ptr %12, i32 0, i32 4
  %14 = load i32, ptr %13, align 8, !tbaa !15
  %15 = icmp ne i32 %14, 1
  br i1 %15, label %16, label %22

16:                                               ; preds = %4
  %17 = load ptr, ptr %6, align 8, !tbaa !3
  %18 = getelementptr inbounds nuw %struct.mbedtls_chachapoly_context, ptr %17, i32 0, i32 4
  %19 = load i32, ptr %18, align 8, !tbaa !15
  %20 = icmp ne i32 %19, 2
  br i1 %20, label %21, label %22

21:                                               ; preds = %16
  store i32 -84, ptr %5, align 4
  store i32 1, ptr %11, align 4
  br label %92

22:                                               ; preds = %16, %4
  %23 = load ptr, ptr %6, align 8, !tbaa !3
  %24 = getelementptr inbounds nuw %struct.mbedtls_chachapoly_context, ptr %23, i32 0, i32 4
  %25 = load i32, ptr %24, align 8, !tbaa !15
  %26 = icmp eq i32 %25, 1
  br i1 %26, label %27, label %37

27:                                               ; preds = %22
  %28 = load ptr, ptr %6, align 8, !tbaa !3
  %29 = getelementptr inbounds nuw %struct.mbedtls_chachapoly_context, ptr %28, i32 0, i32 4
  store i32 2, ptr %29, align 8, !tbaa !15
  %30 = load ptr, ptr %6, align 8, !tbaa !3
  %31 = call i32 @chachapoly_pad_aad(ptr noundef %30)
  store i32 %31, ptr %10, align 4, !tbaa !19
  %32 = load i32, ptr %10, align 4, !tbaa !19
  %33 = icmp ne i32 %32, 0
  br i1 %33, label %34, label %36

34:                                               ; preds = %27
  %35 = load i32, ptr %10, align 4, !tbaa !19
  store i32 %35, ptr %5, align 4
  store i32 1, ptr %11, align 4
  br label %92

36:                                               ; preds = %27
  br label %37

37:                                               ; preds = %36, %22
  %38 = load i64, ptr %7, align 8, !tbaa !20
  %39 = load ptr, ptr %6, align 8, !tbaa !3
  %40 = getelementptr inbounds nuw %struct.mbedtls_chachapoly_context, ptr %39, i32 0, i32 3
  %41 = load i64, ptr %40, align 8, !tbaa !14
  %42 = add i64 %41, %38
  store i64 %42, ptr %40, align 8, !tbaa !14
  %43 = load ptr, ptr %6, align 8, !tbaa !3
  %44 = getelementptr inbounds nuw %struct.mbedtls_chachapoly_context, ptr %43, i32 0, i32 5
  %45 = load i32, ptr %44, align 4, !tbaa !16
  %46 = icmp eq i32 %45, 0
  br i1 %46, label %47, label %69

47:                                               ; preds = %37
  %48 = load ptr, ptr %6, align 8, !tbaa !3
  %49 = getelementptr inbounds nuw %struct.mbedtls_chachapoly_context, ptr %48, i32 0, i32 0
  %50 = load i64, ptr %7, align 8, !tbaa !20
  %51 = load ptr, ptr %8, align 8, !tbaa !17
  %52 = load ptr, ptr %9, align 8, !tbaa !17
  %53 = call i32 @mbedtls_chacha20_update(ptr noundef %49, i64 noundef %50, ptr noundef %51, ptr noundef %52)
  store i32 %53, ptr %10, align 4, !tbaa !19
  %54 = load i32, ptr %10, align 4, !tbaa !19
  %55 = icmp ne i32 %54, 0
  br i1 %55, label %56, label %58

56:                                               ; preds = %47
  %57 = load i32, ptr %10, align 4, !tbaa !19
  store i32 %57, ptr %5, align 4
  store i32 1, ptr %11, align 4
  br label %92

58:                                               ; preds = %47
  %59 = load ptr, ptr %6, align 8, !tbaa !3
  %60 = getelementptr inbounds nuw %struct.mbedtls_chachapoly_context, ptr %59, i32 0, i32 1
  %61 = load ptr, ptr %9, align 8, !tbaa !17
  %62 = load i64, ptr %7, align 8, !tbaa !20
  %63 = call i32 @mbedtls_poly1305_update(ptr noundef %60, ptr noundef %61, i64 noundef %62)
  store i32 %63, ptr %10, align 4, !tbaa !19
  %64 = load i32, ptr %10, align 4, !tbaa !19
  %65 = icmp ne i32 %64, 0
  br i1 %65, label %66, label %68

66:                                               ; preds = %58
  %67 = load i32, ptr %10, align 4, !tbaa !19
  store i32 %67, ptr %5, align 4
  store i32 1, ptr %11, align 4
  br label %92

68:                                               ; preds = %58
  br label %91

69:                                               ; preds = %37
  %70 = load ptr, ptr %6, align 8, !tbaa !3
  %71 = getelementptr inbounds nuw %struct.mbedtls_chachapoly_context, ptr %70, i32 0, i32 1
  %72 = load ptr, ptr %8, align 8, !tbaa !17
  %73 = load i64, ptr %7, align 8, !tbaa !20
  %74 = call i32 @mbedtls_poly1305_update(ptr noundef %71, ptr noundef %72, i64 noundef %73)
  store i32 %74, ptr %10, align 4, !tbaa !19
  %75 = load i32, ptr %10, align 4, !tbaa !19
  %76 = icmp ne i32 %75, 0
  br i1 %76, label %77, label %79

77:                                               ; preds = %69
  %78 = load i32, ptr %10, align 4, !tbaa !19
  store i32 %78, ptr %5, align 4
  store i32 1, ptr %11, align 4
  br label %92

79:                                               ; preds = %69
  %80 = load ptr, ptr %6, align 8, !tbaa !3
  %81 = getelementptr inbounds nuw %struct.mbedtls_chachapoly_context, ptr %80, i32 0, i32 0
  %82 = load i64, ptr %7, align 8, !tbaa !20
  %83 = load ptr, ptr %8, align 8, !tbaa !17
  %84 = load ptr, ptr %9, align 8, !tbaa !17
  %85 = call i32 @mbedtls_chacha20_update(ptr noundef %81, i64 noundef %82, ptr noundef %83, ptr noundef %84)
  store i32 %85, ptr %10, align 4, !tbaa !19
  %86 = load i32, ptr %10, align 4, !tbaa !19
  %87 = icmp ne i32 %86, 0
  br i1 %87, label %88, label %90

88:                                               ; preds = %79
  %89 = load i32, ptr %10, align 4, !tbaa !19
  store i32 %89, ptr %5, align 4
  store i32 1, ptr %11, align 4
  br label %92

90:                                               ; preds = %79
  br label %91

91:                                               ; preds = %90, %68
  store i32 0, ptr %5, align 4
  store i32 1, ptr %11, align 4
  br label %92

92:                                               ; preds = %91, %88, %77, %66, %56, %34, %21
  call void @llvm.lifetime.end.p0(i64 4, ptr %10) #7
  %93 = load i32, ptr %5, align 4
  ret i32 %93
}