; Function Attrs: nounwind uwtable
define hidden i32 @mbedtls_chachapoly_update(ptr noundef %0, i64 noundef %1, ptr noundef %2, ptr noundef %3) local_unnamed_addr #0 {
  %5 = alloca [15 x i8], align 1
  %6 = getelementptr inbounds nuw i8, ptr %0, i64 232
  %7 = load i32, ptr %6, align 8, !tbaa !3
  %.off = add i32 %7, -1
  %switch = icmp ult i32 %.off, 2
  br i1 %switch, label %8, label %38

8:                                                ; preds = %4
  %9 = icmp eq i32 %7, 1
  br i1 %9, label %10, label %20

10:                                               ; preds = %8
  store i32 2, ptr %6, align 8, !tbaa !3
  %11 = getelementptr inbounds nuw i8, ptr %0, i64 216
  %12 = load i64, ptr %11, align 8, !tbaa !12
  %13 = trunc i64 %12 to i32
  %14 = and i32 %13, 15
  call void @llvm.lifetime.start.p0(i64 15, ptr nonnull %5) #7
  %15 = icmp eq i32 %14, 0
  br i1 %15, label %chachapoly_pad_aad.exit.thread, label %chachapoly_pad_aad.exit

chachapoly_pad_aad.exit.thread:                   ; preds = %10
  call void @llvm.lifetime.end.p0(i64 15, ptr nonnull %5) #7
  br label %20

chachapoly_pad_aad.exit:                          ; preds = %10
  call void @llvm.memset.p0.i64(ptr noundef nonnull align 1 dereferenceable(15) %5, i8 0, i64 15, i1 false)
  %16 = getelementptr inbounds nuw i8, ptr %0, i64 136
  %17 = sub nuw nsw i32 16, %14
  %18 = zext nneg i32 %17 to i64
  %19 = call i32 @mbedtls_poly1305_update(ptr noundef nonnull %16, ptr noundef nonnull %5, i64 noundef %18) #7
  call void @llvm.lifetime.end.p0(i64 15, ptr nonnull %5) #7
  %.not39 = icmp eq i32 %19, 0
  br i1 %.not39, label %20, label %38

20:                                               ; preds = %chachapoly_pad_aad.exit.thread, %chachapoly_pad_aad.exit, %8
  %21 = getelementptr inbounds nuw i8, ptr %0, i64 224
  %22 = load i64, ptr %21, align 8, !tbaa !13
  %23 = add i64 %22, %1
  store i64 %23, ptr %21, align 8, !tbaa !13
  %24 = getelementptr inbounds nuw i8, ptr %0, i64 236
  %25 = load i32, ptr %24, align 4, !tbaa !11
  %26 = icmp eq i32 %25, 0
  br i1 %26, label %27, label %32

27:                                               ; preds = %20
  %28 = call i32 @mbedtls_chacha20_update(ptr noundef nonnull %0, i64 noundef %1, ptr noundef %2, ptr noundef %3) #7
  %.not42 = icmp eq i32 %28, 0
  br i1 %.not42, label %29, label %38

29:                                               ; preds = %27
  %30 = getelementptr inbounds nuw i8, ptr %0, i64 136
  %31 = call i32 @mbedtls_poly1305_update(ptr noundef nonnull %30, ptr noundef %3, i64 noundef %1) #7
  %.not43 = icmp eq i32 %31, 0
  br i1 %.not43, label %37, label %38

32:                                               ; preds = %20
  %33 = getelementptr inbounds nuw i8, ptr %0, i64 136
  %34 = call i32 @mbedtls_poly1305_update(ptr noundef nonnull %33, ptr noundef %2, i64 noundef %1) #7
  %.not40 = icmp eq i32 %34, 0
  br i1 %.not40, label %35, label %38

35:                                               ; preds = %32
  %36 = call i32 @mbedtls_chacha20_update(ptr noundef nonnull %0, i64 noundef %1, ptr noundef %2, ptr noundef %3) #7
  %.not41 = icmp eq i32 %36, 0
  br i1 %.not41, label %37, label %38

37:                                               ; preds = %35, %29
  br label %38

38:                                               ; preds = %4, %35, %32, %29, %27, %chachapoly_pad_aad.exit, %37
  %.0 = phi i32 [ 0, %37 ], [ -84, %4 ], [ %19, %chachapoly_pad_aad.exit ], [ %28, %27 ], [ %31, %29 ], [ %34, %32 ], [ %36, %35 ]
  ret i32 %.0
}